(dp0
S'show_imports'
p1
I1
sS'prj_name'
p2
S'proxy'
p3
sS'docformat'
p4
S'restructuredtext'
p5
sS'inheritance'
p6
S'included'
p7
sS'help'
p8
NsS'modules'
p9
(S'/prj/drive/__src__/working/Cache.py'
p10
S'/prj/drive/__src__/working/Config.py'
p11
S'/prj/drive/__src__/working/Headers.py'
p12
S'/prj/drive/__src__/working/Log.py'
p13
S'/prj/drive/__src__/working/Proxy.py'
p14
S'/prj/drive/__src__/working/ThreadPool.py'
p15
S'/prj/drive/__src__/working/main.py'
p16
tp17
sS'private'
p18
I1
sS'prj_url'
p19
NsS'introspect_or_parse'
p20
S'both'
p21
sS'frames'
p22
I1
sS'css'
p23
S'blue'
p24
sS'target'
p25
S'/prj/drive/__src__/working/doc/html'
p26
s.